; Function Attrs: mustprogress uwtable
define noundef nonnull ptr @_Z15common_log_initv() local_unnamed_addr #5 personality ptr @__gxx_personality_v0 {
  %1 = tail call noalias noundef nonnull dereferenceable(208) ptr @_Znwm(i64 noundef 208) #23
  invoke void @_ZN10common_logC2Em(ptr noundef nonnull align 8 dereferenceable(208) %1, i64 noundef 256)
          to label %_ZN10common_logC2Ev.exit unwind label %2

_ZN10common_logC2Ev.exit:                         ; preds = %0
  ret ptr %1

2:                                                ; preds = %0
  %3 = landingpad { ptr, i32 }
          cleanup
  tail call void @_ZdlPvm(ptr noundef nonnull %1, i64 noundef 208) #22
  resume { ptr, i32 } %3
}